target datalayout = "e-m:e-p270:32:32-p271:32:32-p272:64:64-i64:64-i128:128-f80:128-n8:16:32:64-S128"
target triple = "x86_64-pc-linux-gnu"

@msrp_handle = internal global ptr null, align 8
@proto_msrp = internal global i32 0, align 4
@proto_register_msrp.ett = internal global [7 x ptr] [ptr @ett_msrp, ptr @ett_raw_text, ptr @ett_msrp_reqresp, ptr @ett_msrp_hdr, ptr @ett_msrp_data, ptr @ett_msrp_end_line, ptr @ett_msrp_setup], align 16
@.str.61 = private unnamed_addr constant [31 x i8] c"Message Session Relay Protocol\00", align 1
@.str.62 = private unnamed_addr constant [5 x i8] c"MSRP\00", align 1
@.str.63 = private unnamed_addr constant [5 x i8] c"msrp\00", align 1
@.str.64 = private unnamed_addr constant [17 x i8] c"display_raw_text\00", align 1
@.str.65 = private unnamed_addr constant [34 x i8] c"Display raw text for MSRP message\00", align 1
@.str.66 = private unnamed_addr constant [103 x i8] c"Specifies that the raw text of the MSRP message should be displayed in addition to the dissection tree\00", align 1
@global_msrp_raw_text = internal global i8 1, align 1
@.str.67 = private unnamed_addr constant [16 x i8] c"show_setup_info\00", align 1
@.str.68 = private unnamed_addr constant [30 x i8] c"Show stream setup information\00", align 1
@.str.69 = private unnamed_addr constant [85 x i8] c"Where available, show which protocol and frame caused this MSRP stream to be created\00", align 1
@global_msrp_show_setup_info = internal global i8 1, align 1

; Function Attrs: null_pointer_is_valid sspstrong uwtable
define hidden void @proto_register_msrp() #0 {
  %1 = alloca ptr, align 8
  %2 = alloca ptr, align 8
  call void @llvm.lifetime.start.p0(i64 8, ptr %1) #8
  call void @llvm.lifetime.start.p0(i64 8, ptr %2) #8
  %3 = call i32 @proto_register_protocol(ptr noundef @.str.61, ptr noundef @.str.62, ptr noundef @.str.63)
  store i32 %3, ptr @proto_msrp, align 4
  %4 = load i32, ptr @proto_msrp, align 4
  call void @proto_register_field_array(i32 noundef %4, ptr noundef @proto_register_msrp.hf, i32 noundef 28)
  call void @proto_register_subtree_array(ptr noundef @proto_register_msrp.ett, i32 noundef 7)
  %5 = load i32, ptr @proto_msrp, align 4
  %6 = call ptr @prefs_register_protocol(i32 noundef %5, ptr noundef null)
  store ptr %6, ptr %2, align 8
  %7 = load ptr, ptr %2, align 8
  call void @prefs_register_bool_preference(ptr noundef %7, ptr noundef @.str.64, ptr noundef @.str.65, ptr noundef @.str.66, ptr noundef @global_msrp_raw_text)
  %8 = load ptr, ptr %2, align 8
  call void @prefs_register_bool_preference(ptr noundef %8, ptr noundef @.str.67, ptr noundef @.str.68, ptr noundef @.str.69, ptr noundef @global_msrp_show_setup_info)
  %9 = load i32, ptr @proto_msrp, align 4
  %10 = call ptr @register_dissector(ptr noundef @.str.63, ptr noundef @dissect_msrp, i32 noundef %9)
  store ptr %10, ptr @msrp_handle, align 8
  %11 = load i32, ptr @proto_msrp, align 4
  %12 = call ptr @expert_register_protocol(i32 noundef %11)
  store ptr %12, ptr %1, align 8
  %13 = load ptr, ptr %1, align 8
  call void @expert_register_field_array(ptr noundef %13, ptr noundef @proto_register_msrp.ei, i32 noundef 1)
  call void @llvm.lifetime.end.p0(i64 8, ptr %2) #8
  call void @llvm.lifetime.end.p0(i64 8, ptr %1) #8
  ret void
}