; Function Attrs: null_pointer_is_valid sspstrong uwtable
define hidden void @proto_register_msrp() local_unnamed_addr #0 {
  %1 = tail call i32 @proto_register_protocol(ptr noundef nonnull @.str.61, ptr noundef nonnull @.str.62, ptr noundef nonnull @.str.63)
  store i32 %1, ptr @proto_msrp, align 4
  tail call void @proto_register_field_array(i32 noundef %1, ptr noundef nonnull @proto_register_msrp.hf, i32 noundef 28)
  tail call void @proto_register_subtree_array(ptr noundef nonnull @proto_register_msrp.ett, i32 noundef 7)
  %2 = load i32, ptr @proto_msrp, align 4
  %3 = tail call ptr @prefs_register_protocol(i32 noundef %2, ptr noundef null)
  tail call void @prefs_register_bool_preference(ptr noundef %3, ptr noundef nonnull @.str.64, ptr noundef nonnull @.str.65, ptr noundef nonnull @.str.66, ptr noundef nonnull @global_msrp_raw_text)
  tail call void @prefs_register_bool_preference(ptr noundef %3, ptr noundef nonnull @.str.67, ptr noundef nonnull @.str.68, ptr noundef nonnull @.str.69, ptr noundef nonnull @global_msrp_show_setup_info)
  %4 = load i32, ptr @proto_msrp, align 4
  %5 = tail call ptr @register_dissector(ptr noundef nonnull @.str.63, ptr noundef nonnull @dissect_msrp, i32 noundef %4)
  store ptr %5, ptr @msrp_handle, align 8
  %6 = load i32, ptr @proto_msrp, align 4
  %7 = tail call ptr @expert_register_protocol(i32 noundef %6)
  tail call void @expert_register_field_array(ptr noundef %7, ptr noundef nonnull @proto_register_msrp.ei, i32 noundef 1)
  ret void
}